; Function Attrs: mustprogress uwtable
define void @_ZN6icu_7717DateFormatSymbols9setMonthsEPKNS_13UnicodeStringEi(ptr noundef nonnull align 8 captures(none) dereferenceable(976) %0, ptr noundef %1, i32 noundef %2) local_unnamed_addr #1 align 2 personality ptr @__gxx_personality_v0 {
  %4 = getelementptr inbounds nuw i8, ptr %0, i64 56
  %5 = load ptr, ptr %4, align 8, !tbaa !38
  %6 = icmp eq ptr %5, null
  br i1 %6, label %15, label %7

7:                                                ; preds = %3
  %8 = getelementptr inbounds i8, ptr %5, i64 -8
  %9 = load i64, ptr %8, align 8
  %10 = icmp eq i64 %9, 0
  br i1 %10, label %.loopexit, label %.preheader.preheader

.preheader.preheader:                             ; preds = %7
  %11 = getelementptr inbounds %"class.icu_77::UnicodeString", ptr %5, i64 %9
  br label %.preheader

.preheader:                                       ; preds = %.preheader.preheader, %.preheader
  %12 = phi ptr [ %13, %.preheader ], [ %11, %.preheader.preheader ]
  %13 = getelementptr inbounds i8, ptr %12, i64 -64
  tail call void @_ZN6icu_7713UnicodeStringD1Ev(ptr noundef nonnull align 8 dereferenceable(64) %13) #19
  %14 = icmp eq ptr %13, %5
  br i1 %14, label %.loopexit, label %.preheader

.loopexit:                                        ; preds = %.preheader, %7
  tail call void @_ZN6icu_777UMemorydaEPv(ptr noundef nonnull %8) #19
  br label %15

15:                                               ; preds = %.loopexit, %3
  %16 = tail call i32 @llvm.umax.i32(i32 %2, i32 1)
  %17 = sext i32 %16 to i64
  %18 = icmp slt i32 %2, 0
  %19 = shl nsw i64 %17, 6
  %20 = or disjoint i64 %19, 8
  %21 = select i1 %18, i64 -1, i64 %20
  %22 = tail call noundef ptr @_ZN6icu_777UMemorynaEm(i64 noundef %21) #19
  %23 = icmp eq ptr %22, null
  br i1 %23, label %_ZN6icu_77L21newUnicodeStringArrayEm.exit, label %24

24:                                               ; preds = %15
  store i64 %17, ptr %22, align 8
  %.ptr11.i = getelementptr inbounds nuw i8, ptr %22, i64 8
  %25 = getelementptr inbounds %"class.icu_77::UnicodeString", ptr %.ptr11.i, i64 %17
  br label %26

26:                                               ; preds = %26, %24
  %.idx.i = phi i64 [ 8, %24 ], [ %.add.i, %26 ]
  %.ptr.ptr.i = getelementptr inbounds nuw i8, ptr %22, i64 %.idx.i
  store ptr getelementptr inbounds nuw inrange(-16, 88) (i8, ptr @_ZTVN6icu_7713UnicodeStringE, i64 16), ptr %.ptr.ptr.i, align 8, !tbaa !15
  %27 = getelementptr inbounds nuw i8, ptr %.ptr.ptr.i, i64 8
  store i16 2, ptr %27, align 8, !tbaa !23
  %.add.i = add nuw nsw i64 %.idx.i, 64
  %.ptr10.i = getelementptr inbounds nuw i8, ptr %22, i64 %.add.i
  %28 = icmp eq ptr %.ptr10.i, %25
  br i1 %28, label %_ZN6icu_77L21newUnicodeStringArrayEm.exit, label %26

_ZN6icu_77L21newUnicodeStringArrayEm.exit:        ; preds = %26, %15
  %29 = phi ptr [ null, %15 ], [ %.ptr11.i, %26 ]
  store ptr %29, ptr %4, align 8, !tbaa !38
  %30 = icmp sgt i32 %2, 0
  br i1 %30, label %.lr.ph.i, label %_ZL14uprv_arrayCopyPKN6icu_7713UnicodeStringEPS0_i.exit

.lr.ph.i:                                         ; preds = %_ZN6icu_77L21newUnicodeStringArrayEm.exit, %.lr.ph.i
  %.06.i = phi i32 [ %31, %.lr.ph.i ], [ %2, %_ZN6icu_77L21newUnicodeStringArrayEm.exit ]
  %.025.i = phi ptr [ %33, %.lr.ph.i ], [ %29, %_ZN6icu_77L21newUnicodeStringArrayEm.exit ]
  %.034.i = phi ptr [ %32, %.lr.ph.i ], [ %1, %_ZN6icu_77L21newUnicodeStringArrayEm.exit ]
  %31 = add nsw i32 %.06.i, -1
  %32 = getelementptr inbounds nuw i8, ptr %.034.i, i64 64
  %33 = getelementptr inbounds nuw i8, ptr %.025.i, i64 64
  %34 = tail call noundef nonnull align 8 dereferenceable(64) ptr @_ZN6icu_7713UnicodeStringaSERKS0_(ptr noundef nonnull align 8 dereferenceable(64) %.025.i, ptr noundef nonnull align 8 dereferenceable(64) %.034.i)
  %35 = icmp samesign ugt i32 %.06.i, 1
  br i1 %35, label %.lr.ph.i, label %_ZL14uprv_arrayCopyPKN6icu_7713UnicodeStringEPS0_i.exit, !llvm.loop !158

_ZL14uprv_arrayCopyPKN6icu_7713UnicodeStringEPS0_i.exit: ; preds = %.lr.ph.i, %_ZN6icu_77L21newUnicodeStringArrayEm.exit
  %36 = getelementptr inbounds nuw i8, ptr %0, i64 64
  store i32 %2, ptr %36, align 8, !tbaa !39
  ret void
}